target datalayout = "e-m:e-p270:32:32-p271:32:32-p272:64:64-i64:64-i128:128-f80:128-n8:16:32:64-S128"
target triple = "x86_64-pc-linux-gnu"

%"class.icu_77::UObject" = type { ptr }
%"class.icu_77::Calendar" = type <{ %"class.icu_77::UObject", [24 x i32], [24 x i8], i8, [7 x i8], double, ptr, i8, i16, i8, i32, i32, i32, i8, i8, i16, [4 x i8], ptr, ptr }>

@_ZTIN6icu_778TimeZoneE = external constant ptr
@_ZTIN6icu_7713OlsonTimeZoneE = external constant ptr
@_ZTIN6icu_7714SimpleTimeZoneE = external constant ptr
@_ZTIN6icu_7717RuleBasedTimeZoneE = external constant ptr
@_ZTIN6icu_779VTimeZoneE = external constant ptr

; Function Attrs: mustprogress nounwind uwtable
define noundef nonnull align 8 dereferenceable(72) ptr @_ZNK6icu_778Calendar11getTimeZoneEv(ptr noundef nonnull align 8 dereferenceable(192) %0) #0 align 2 {
  %2 = alloca ptr, align 8
  store ptr %0, ptr %2, align 8, !tbaa !37
  %3 = load ptr, ptr %2, align 8
  %4 = getelementptr inbounds nuw %"class.icu_77::Calendar", ptr %3, i32 0, i32 6
  %5 = load ptr, ptr %4, align 8, !tbaa !64
  ret ptr %5
}

; Function Attrs: mustprogress nounwind uwtable
define noundef ptr @_ZNK6icu_778Calendar16getBasicTimeZoneEv(ptr noundef nonnull align 8 dereferenceable(192) %0) #0 align 2 {
  %2 = alloca ptr, align 8
  %3 = alloca ptr, align 8
  store ptr %0, ptr %3, align 8, !tbaa !37
  %4 = load ptr, ptr %3, align 8
  %5 = getelementptr inbounds nuw %"class.icu_77::Calendar", ptr %4, i32 0, i32 6
  %6 = load ptr, ptr %5, align 8, !tbaa !64
  %7 = icmp eq ptr %6, null
  br i1 %7, label %10, label %8

8:                                                ; preds = %1
  %9 = call ptr @__dynamic_cast(ptr %6, ptr @_ZTIN6icu_778TimeZoneE, ptr @_ZTIN6icu_7713OlsonTimeZoneE, i64 0) #16
  br label %11

10:                                               ; preds = %1
  br label %11

11:                                               ; preds = %10, %8
  %12 = phi ptr [ %9, %8 ], [ null, %10 ]
  %13 = icmp ne ptr %12, null
  br i1 %13, label %44, label %14

14:                                               ; preds = %11
  %15 = getelementptr inbounds nuw %"class.icu_77::Calendar", ptr %4, i32 0, i32 6
  %16 = load ptr, ptr %15, align 8, !tbaa !64
  %17 = icmp eq ptr %16, null
  br i1 %17, label %20, label %18

18:                                               ; preds = %14
  %19 = call ptr @__dynamic_cast(ptr %16, ptr @_ZTIN6icu_778TimeZoneE, ptr @_ZTIN6icu_7714SimpleTimeZoneE, i64 0) #16
  br label %21

20:                                               ; preds = %14
  br label %21

21:                                               ; preds = %20, %18
  %22 = phi ptr [ %19, %18 ], [ null, %20 ]
  %23 = icmp ne ptr %22, null
  br i1 %23, label %44, label %24

24:                                               ; preds = %21
  %25 = getelementptr inbounds nuw %"class.icu_77::Calendar", ptr %4, i32 0, i32 6
  %26 = load ptr, ptr %25, align 8, !tbaa !64
  %27 = icmp eq ptr %26, null
  br i1 %27, label %30, label %28

28:                                               ; preds = %24
  %29 = call ptr @__dynamic_cast(ptr %26, ptr @_ZTIN6icu_778TimeZoneE, ptr @_ZTIN6icu_7717RuleBasedTimeZoneE, i64 0) #16
  br label %31

30:                                               ; preds = %24
  br label %31

31:                                               ; preds = %30, %28
  %32 = phi ptr [ %29, %28 ], [ null, %30 ]
  %33 = icmp ne ptr %32, null
  br i1 %33, label %44, label %34

34:                                               ; preds = %31
  %35 = getelementptr inbounds nuw %"class.icu_77::Calendar", ptr %4, i32 0, i32 6
  %36 = load ptr, ptr %35, align 8, !tbaa !64
  %37 = icmp eq ptr %36, null
  br i1 %37, label %40, label %38

38:                                               ; preds = %34
  %39 = call ptr @__dynamic_cast(ptr %36, ptr @_ZTIN6icu_778TimeZoneE, ptr @_ZTIN6icu_779VTimeZoneE, i64 0) #16
  br label %41

40:                                               ; preds = %34
  br label %41

41:                                               ; preds = %40, %38
  %42 = phi ptr [ %39, %38 ], [ null, %40 ]
  %43 = icmp ne ptr %42, null
  br i1 %43, label %44, label %47

44:                                               ; preds = %41, %31, %21, %11
  %45 = getelementptr inbounds nuw %"class.icu_77::Calendar", ptr %4, i32 0, i32 6
  %46 = load ptr, ptr %45, align 8, !tbaa !64
  store ptr %46, ptr %2, align 8
  br label %48

47:                                               ; preds = %41
  store ptr null, ptr %2, align 8
  br label %48

48:                                               ; preds = %47, %44
  %49 = load ptr, ptr %2, align 8
  ret ptr %49
}

; Function Attrs: inlinehint mustprogress nounwind uwtable
define internal noundef signext i8 @_ZL9U_FAILURE10UErrorCode(i32 noundef %0) #2 {
  %2 = alloca i32, align 4
  store i32 %0, ptr %2, align 4, !tbaa !15
  %3 = load i32, ptr %2, align 4, !tbaa !15
  %4 = icmp sgt i32 %3, 0
  %5 = zext i1 %4 to i8
  ret i8 %5
}

; Function Attrs: mustprogress uwtable
define noundef i32 @_ZN6icu_778Calendar17computeZoneOffsetEddR10UErrorCode(ptr noundef nonnull align 8 dereferenceable(192) %0, double noundef %1, double noundef %2, ptr noundef nonnull align 4 dereferenceable(4) %3) #1 align 2 {
  %5 = alloca i32, align 4
  %6 = alloca ptr, align 8
  %7 = alloca double, align 8
  %8 = alloca double, align 8
  %9 = alloca ptr, align 8
  %10 = alloca i32, align 4
  %11 = alloca i32, align 4
  %12 = alloca double, align 8
  %13 = alloca ptr, align 8
  %14 = alloca i32, align 4
  %15 = alloca i32, align 4
  %16 = alloca ptr, align 8
  %17 = alloca i8, align 1
  %18 = alloca double, align 8
  %19 = alloca i32, align 4
  %20 = alloca i32, align 4
  %21 = alloca i32, align 4
  %22 = alloca double, align 8
  store ptr %0, ptr %6, align 8, !tbaa !37
  store double %1, ptr %7, align 8, !tbaa !97
  store double %2, ptr %8, align 8, !tbaa !97
  store ptr %3, ptr %9, align 8, !tbaa !22
  %23 = load ptr, ptr %6, align 8
  %24 = load ptr, ptr %9, align 8, !tbaa !22
  %25 = load i32, ptr %24, align 4, !tbaa !15
  %26 = call noundef signext i8 @_ZL9U_FAILURE10UErrorCode(i32 noundef %25)
  %27 = icmp ne i8 %26, 0
  br i1 %27, label %28, label %29

28:                                               ; preds = %4
  store i32 0, ptr %5, align 4
  br label %131

29:                                               ; preds = %4
  call void @llvm.lifetime.start.p0(i64 4, ptr %10) #16
  call void @llvm.lifetime.start.p0(i64 4, ptr %11) #16
  call void @llvm.lifetime.start.p0(i64 8, ptr %12) #16
  %30 = load double, ptr %7, align 8, !tbaa !97
  %31 = load double, ptr %8, align 8, !tbaa !97
  %32 = fadd double %30, %31
  store double %32, ptr %12, align 8, !tbaa !97
  call void @llvm.lifetime.start.p0(i64 8, ptr %13) #16
  %33 = call noundef ptr @_ZNK6icu_778Calendar16getBasicTimeZoneEv(ptr noundef nonnull align 8 dereferenceable(192) %23)
  store ptr %33, ptr %13, align 8, !tbaa !121
  %34 = load ptr, ptr %13, align 8, !tbaa !121
  %35 = icmp ne ptr %34, null
  br i1 %35, label %36, label %57

36:                                               ; preds = %29
  call void @llvm.lifetime.start.p0(i64 4, ptr %14) #16
  %37 = getelementptr inbounds nuw %"class.icu_77::Calendar", ptr %23, i32 0, i32 7
  %38 = load i8, ptr %37, align 8
  %39 = lshr i8 %38, 5
  %40 = zext i8 %39 to i32
  %41 = icmp eq i32 %40, 1
  %42 = select i1 %41, i32 4, i32 12
  store i32 %42, ptr %14, align 4, !tbaa !138
  call void @llvm.lifetime.start.p0(i64 4, ptr %15) #16
  %43 = getelementptr inbounds nuw %"class.icu_77::Calendar", ptr %23, i32 0, i32 8
  %44 = load i16, ptr %43, align 1
  %45 = and i16 %44, 7
  %46 = zext i16 %45 to i32
  %47 = icmp eq i32 %46, 1
  %48 = select i1 %47, i32 12, i32 4
  store i32 %48, ptr %15, align 4, !tbaa !138
  %49 = load ptr, ptr %13, align 8, !tbaa !121
  %50 = load double, ptr %12, align 8, !tbaa !97
  %51 = load i32, ptr %15, align 4, !tbaa !138
  %52 = load i32, ptr %14, align 4, !tbaa !138
  %53 = load ptr, ptr %9, align 8, !tbaa !22
  %54 = load ptr, ptr %49, align 8, !tbaa !25
  %55 = getelementptr inbounds ptr, ptr %54, i64 20
  %56 = load ptr, ptr %55, align 8
  call void %56(ptr noundef nonnull align 8 dereferenceable(72) %49, double noundef %50, i32 noundef %51, i32 noundef %52, ptr noundef nonnull align 4 dereferenceable(4) %10, ptr noundef nonnull align 4 dereferenceable(4) %11, ptr noundef nonnull align 4 dereferenceable(4) %53)
  call void @llvm.lifetime.end.p0(i64 4, ptr %15) #16
  call void @llvm.lifetime.end.p0(i64 4, ptr %14) #16
  br label %127

57:                                               ; preds = %29
  call void @llvm.lifetime.start.p0(i64 8, ptr %16) #16
  %58 = call noundef nonnull align 8 dereferenceable(72) ptr @_ZNK6icu_778Calendar11getTimeZoneEv(ptr noundef nonnull align 8 dereferenceable(192) %23)
  store ptr %58, ptr %16, align 8, !tbaa !73
  %59 = load ptr, ptr %16, align 8, !tbaa !73
  %60 = load double, ptr %12, align 8, !tbaa !97
  %61 = load ptr, ptr %9, align 8, !tbaa !22
  %62 = load ptr, ptr %59, align 8, !tbaa !25
  %63 = getelementptr inbounds ptr, ptr %62, i64 6
  %64 = load ptr, ptr %63, align 8
  call void %64(ptr noundef nonnull align 8 dereferenceable(72) %59, double noundef %60, i8 noundef signext 1, ptr noundef nonnull align 4 dereferenceable(4) %10, ptr noundef nonnull align 4 dereferenceable(4) %11, ptr noundef nonnull align 4 dereferenceable(4) %61)
  call void @llvm.lifetime.start.p0(i64 1, ptr %17) #16
  store i8 0, ptr %17, align 1, !tbaa !70
  %65 = getelementptr inbounds nuw %"class.icu_77::Calendar", ptr %23, i32 0, i32 7
  %66 = load i8, ptr %65, align 8
  %67 = lshr i8 %66, 5
  %68 = zext i8 %67 to i32
  %69 = icmp eq i32 %68, 1
  br i1 %69, label %70, label %104

70:                                               ; preds = %57
  call void @llvm.lifetime.start.p0(i64 8, ptr %18) #16
  %71 = load double, ptr %12, align 8, !tbaa !97
  %72 = load i32, ptr %10, align 4, !tbaa !14
  %73 = load i32, ptr %11, align 4, !tbaa !14
  %74 = add nsw i32 %72, %73
  %75 = sitofp i32 %74 to double
  %76 = fsub double %71, %75
  store double %76, ptr %18, align 8, !tbaa !97
  call void @llvm.lifetime.start.p0(i64 4, ptr %19) #16
  call void @llvm.lifetime.start.p0(i64 4, ptr %20) #16
  %77 = load ptr, ptr %16, align 8, !tbaa !73
  %78 = load double, ptr %18, align 8, !tbaa !97
  %79 = fsub double %78, 2.160000e+07
  %80 = load ptr, ptr %9, align 8, !tbaa !22
  %81 = load ptr, ptr %77, align 8, !tbaa !25
  %82 = getelementptr inbounds ptr, ptr %81, i64 6
  %83 = load ptr, ptr %82, align 8
  call void %83(ptr noundef nonnull align 8 dereferenceable(72) %77, double noundef %79, i8 noundef signext 0, ptr noundef nonnull align 4 dereferenceable(4) %19, ptr noundef nonnull align 4 dereferenceable(4) %20, ptr noundef nonnull align 4 dereferenceable(4) %80)
  call void @llvm.lifetime.start.p0(i64 4, ptr %21) #16
  %84 = load i32, ptr %10, align 4, !tbaa !14
  %85 = load i32, ptr %11, align 4, !tbaa !14
  %86 = add nsw i32 %84, %85
  %87 = load i32, ptr %19, align 4, !tbaa !14
  %88 = load i32, ptr %20, align 4, !tbaa !14
  %89 = add nsw i32 %87, %88
  %90 = sub nsw i32 %86, %89
  store i32 %90, ptr %21, align 4, !tbaa !14
  %91 = load i32, ptr %21, align 4, !tbaa !14
  %92 = icmp slt i32 %91, 0
  br i1 %92, label %93, label %103

93:                                               ; preds = %70
  store i8 1, ptr %17, align 1, !tbaa !70
  %94 = load ptr, ptr %16, align 8, !tbaa !73
  %95 = load double, ptr %12, align 8, !tbaa !97
  %96 = load i32, ptr %21, align 4, !tbaa !14
  %97 = sitofp i32 %96 to double
  %98 = fadd double %95, %97
  %99 = load ptr, ptr %9, align 8, !tbaa !22
  %100 = load ptr, ptr %94, align 8, !tbaa !25
  %101 = getelementptr inbounds ptr, ptr %100, i64 6
  %102 = load ptr, ptr %101, align 8
  call void %102(ptr noundef nonnull align 8 dereferenceable(72) %94, double noundef %98, i8 noundef signext 1, ptr noundef nonnull align 4 dereferenceable(4) %10, ptr noundef nonnull align 4 dereferenceable(4) %11, ptr noundef nonnull align 4 dereferenceable(4) %99)
  br label %103

103:                                              ; preds = %93, %70
  call void @llvm.lifetime.end.p0(i64 4, ptr %21) #16
  call void @llvm.lifetime.end.p0(i64 4, ptr %20) #16
  call void @llvm.lifetime.end.p0(i64 4, ptr %19) #16
  call void @llvm.lifetime.end.p0(i64 8, ptr %18) #16
  br label %104

104:                                              ; preds = %103, %57
  %105 = load i8, ptr %17, align 1, !tbaa !70
  %106 = icmp ne i8 %105, 0
  br i1 %106, label %126, label %107

107:                                              ; preds = %104
  %108 = getelementptr inbounds nuw %"class.icu_77::Calendar", ptr %23, i32 0, i32 8
  %109 = load i16, ptr %108, align 1
  %110 = and i16 %109, 7
  %111 = zext i16 %110 to i32
  %112 = icmp eq i32 %111, 1
  br i1 %112, label %113, label %126

113:                                              ; preds = %107
  call void @llvm.lifetime.start.p0(i64 8, ptr %22) #16
  %114 = load double, ptr %12, align 8, !tbaa !97
  %115 = load i32, ptr %10, align 4, !tbaa !14
  %116 = load i32, ptr %11, align 4, !tbaa !14
  %117 = add nsw i32 %115, %116
  %118 = sitofp i32 %117 to double
  %119 = fsub double %114, %118
  store double %119, ptr %22, align 8, !tbaa !97
  %120 = load ptr, ptr %16, align 8, !tbaa !73
  %121 = load double, ptr %22, align 8, !tbaa !97
  %122 = load ptr, ptr %9, align 8, !tbaa !22
  %123 = load ptr, ptr %120, align 8, !tbaa !25
  %124 = getelementptr inbounds ptr, ptr %123, i64 6
  %125 = load ptr, ptr %124, align 8
  call void %125(ptr noundef nonnull align 8 dereferenceable(72) %120, double noundef %121, i8 noundef signext 0, ptr noundef nonnull align 4 dereferenceable(4) %10, ptr noundef nonnull align 4 dereferenceable(4) %11, ptr noundef nonnull align 4 dereferenceable(4) %122)
  call void @llvm.lifetime.end.p0(i64 8, ptr %22) #16
  br label %126

126:                                              ; preds = %113, %107, %104
  call void @llvm.lifetime.end.p0(i64 1, ptr %17) #16
  call void @llvm.lifetime.end.p0(i64 8, ptr %16) #16
  br label %127

127:                                              ; preds = %126, %36
  %128 = load i32, ptr %10, align 4, !tbaa !14
  %129 = load i32, ptr %11, align 4, !tbaa !14
  %130 = add nsw i32 %128, %129
  store i32 %130, ptr %5, align 4
  call void @llvm.lifetime.end.p0(i64 8, ptr %13) #16
  call void @llvm.lifetime.end.p0(i64 8, ptr %12) #16
  call void @llvm.lifetime.end.p0(i64 4, ptr %11) #16
  call void @llvm.lifetime.end.p0(i64 4, ptr %10) #16
  br label %131

131:                                              ; preds = %127, %28
  %132 = load i32, ptr %5, align 4
  ret i32 %132
}