; Function Attrs: mustprogress uwtable
define noundef i32 @_ZN6icu_778Calendar17computeZoneOffsetEddR10UErrorCode(ptr noundef nonnull readonly align 8 captures(none) dereferenceable(192) %0, double noundef %1, double noundef %2, ptr noundef nonnull align 4 dereferenceable(4) %3) local_unnamed_addr #1 align 2 {
  %5 = alloca i32, align 4
  %6 = alloca i32, align 4
  %7 = alloca i32, align 4
  %8 = alloca i32, align 4
  %9 = load i32, ptr %3, align 4, !tbaa !13
  %10 = icmp slt i32 %9, 1
  br i1 %10, label %11, label %84

11:                                               ; preds = %4
  call void @llvm.lifetime.start.p0(i64 4, ptr nonnull %5) #25
  call void @llvm.lifetime.start.p0(i64 4, ptr nonnull %6) #25
  %12 = fadd double %1, %2
  %13 = getelementptr inbounds nuw i8, ptr %0, i64 144
  %14 = load ptr, ptr %13, align 8, !tbaa !41
  %15 = icmp eq ptr %14, null
  br i1 %15, label %37, label %16

16:                                               ; preds = %11
  %17 = tail call ptr @__dynamic_cast(ptr nonnull %14, ptr nonnull @_ZTIN6icu_778TimeZoneE, ptr nonnull @_ZTIN6icu_7713OlsonTimeZoneE, i64 0) #25
  %18 = icmp eq ptr %17, null
  br i1 %18, label %.critedge.i, label %_ZNK6icu_778Calendar16getBasicTimeZoneEv.exit

.critedge.i:                                      ; preds = %16
  %19 = tail call ptr @__dynamic_cast(ptr nonnull %14, ptr nonnull @_ZTIN6icu_778TimeZoneE, ptr nonnull @_ZTIN6icu_7714SimpleTimeZoneE, i64 0) #25
  %20 = icmp eq ptr %19, null
  br i1 %20, label %.critedge10.i, label %_ZNK6icu_778Calendar16getBasicTimeZoneEv.exit

.critedge10.i:                                    ; preds = %.critedge.i
  %21 = tail call ptr @__dynamic_cast(ptr nonnull %14, ptr nonnull @_ZTIN6icu_778TimeZoneE, ptr nonnull @_ZTIN6icu_7717RuleBasedTimeZoneE, i64 0) #25
  %22 = icmp eq ptr %21, null
  br i1 %22, label %.critedge12.i, label %_ZNK6icu_778Calendar16getBasicTimeZoneEv.exit

.critedge12.i:                                    ; preds = %.critedge10.i
  %23 = tail call ptr @__dynamic_cast(ptr nonnull %14, ptr nonnull @_ZTIN6icu_778TimeZoneE, ptr nonnull @_ZTIN6icu_779VTimeZoneE, i64 0) #25
  %24 = icmp eq ptr %23, null
  br i1 %24, label %37, label %_ZNK6icu_778Calendar16getBasicTimeZoneEv.exit

_ZNK6icu_778Calendar16getBasicTimeZoneEv.exit:    ; preds = %.critedge12.i, %.critedge10.i, %.critedge.i, %16
  %25 = getelementptr inbounds nuw i8, ptr %0, i64 152
  %26 = load i8, ptr %25, align 8
  %.mask32 = and i8 %26, -32
  %27 = icmp eq i8 %.mask32, 32
  %28 = select i1 %27, i32 4, i32 12
  %29 = getelementptr inbounds nuw i8, ptr %0, i64 153
  %30 = load i16, ptr %29, align 1
  %31 = and i16 %30, 7
  %32 = icmp eq i16 %31, 1
  %33 = select i1 %32, i32 12, i32 4
  %34 = load ptr, ptr %14, align 8, !tbaa !15
  %35 = getelementptr inbounds nuw i8, ptr %34, i64 160
  %36 = load ptr, ptr %35, align 8
  call void %36(ptr noundef nonnull align 8 dereferenceable(72) %14, double noundef %12, i32 noundef %33, i32 noundef %28, ptr noundef nonnull align 4 dereferenceable(4) %5, ptr noundef nonnull align 4 dereferenceable(4) %6, ptr noundef nonnull align 4 dereferenceable(4) %3)
  br label %80

37:                                               ; preds = %.critedge12.i, %11
  %38 = load ptr, ptr %14, align 8, !tbaa !15
  %39 = getelementptr inbounds nuw i8, ptr %38, i64 48
  %40 = load ptr, ptr %39, align 8
  call void %40(ptr noundef nonnull align 8 dereferenceable(72) %14, double noundef %12, i8 noundef signext 1, ptr noundef nonnull align 4 dereferenceable(4) %5, ptr noundef nonnull align 4 dereferenceable(4) %6, ptr noundef nonnull align 4 dereferenceable(4) %3)
  %41 = getelementptr inbounds nuw i8, ptr %0, i64 152
  %42 = load i8, ptr %41, align 8
  %.mask = and i8 %42, -32
  %43 = icmp eq i8 %.mask, 32
  br i1 %43, label %44, label %.critedge

44:                                               ; preds = %37
  %45 = load i32, ptr %5, align 4, !tbaa !12
  %46 = load i32, ptr %6, align 4, !tbaa !12
  %47 = add nsw i32 %46, %45
  %48 = sitofp i32 %47 to double
  %49 = fsub double %12, %48
  call void @llvm.lifetime.start.p0(i64 4, ptr nonnull %7) #25
  call void @llvm.lifetime.start.p0(i64 4, ptr nonnull %8) #25
  %50 = fadd double %49, -2.160000e+07
  %51 = load ptr, ptr %14, align 8, !tbaa !15
  %52 = getelementptr inbounds nuw i8, ptr %51, i64 48
  %53 = load ptr, ptr %52, align 8
  call void %53(ptr noundef nonnull align 8 dereferenceable(72) %14, double noundef %50, i8 noundef signext 0, ptr noundef nonnull align 4 dereferenceable(4) %7, ptr noundef nonnull align 4 dereferenceable(4) %8, ptr noundef nonnull align 4 dereferenceable(4) %3)
  %54 = load i32, ptr %5, align 4, !tbaa !12
  %55 = load i32, ptr %6, align 4, !tbaa !12
  %56 = load i32, ptr %7, align 4, !tbaa !12
  %57 = load i32, ptr %8, align 4, !tbaa !12
  %.neg38 = add i32 %55, %54
  %58 = add i32 %56, %57
  %59 = sub i32 %.neg38, %58
  %60 = icmp sgt i32 %59, -1
  br i1 %60, label %.critedge34, label %61

61:                                               ; preds = %44
  %62 = sitofp i32 %59 to double
  %63 = fadd double %12, %62
  %64 = load ptr, ptr %14, align 8, !tbaa !15
  %65 = getelementptr inbounds nuw i8, ptr %64, i64 48
  %66 = load ptr, ptr %65, align 8
  call void %66(ptr noundef nonnull align 8 dereferenceable(72) %14, double noundef %63, i8 noundef signext 1, ptr noundef nonnull align 4 dereferenceable(4) %5, ptr noundef nonnull align 4 dereferenceable(4) %6, ptr noundef nonnull align 4 dereferenceable(4) %3)
  call void @llvm.lifetime.end.p0(i64 4, ptr nonnull %8) #25
  call void @llvm.lifetime.end.p0(i64 4, ptr nonnull %7) #25
  br label %80

.critedge34:                                      ; preds = %44
  call void @llvm.lifetime.end.p0(i64 4, ptr nonnull %8) #25
  call void @llvm.lifetime.end.p0(i64 4, ptr nonnull %7) #25
  br label %.critedge

.critedge:                                        ; preds = %37, %.critedge34
  %67 = getelementptr inbounds nuw i8, ptr %0, i64 153
  %68 = load i16, ptr %67, align 1
  %69 = and i16 %68, 7
  %70 = icmp eq i16 %69, 1
  br i1 %70, label %71, label %80

71:                                               ; preds = %.critedge
  %72 = load i32, ptr %5, align 4, !tbaa !12
  %73 = load i32, ptr %6, align 4, !tbaa !12
  %74 = add nsw i32 %73, %72
  %75 = sitofp i32 %74 to double
  %76 = fsub double %12, %75
  %77 = load ptr, ptr %14, align 8, !tbaa !15
  %78 = getelementptr inbounds nuw i8, ptr %77, i64 48
  %79 = load ptr, ptr %78, align 8
  call void %79(ptr noundef nonnull align 8 dereferenceable(72) %14, double noundef %76, i8 noundef signext 0, ptr noundef nonnull align 4 dereferenceable(4) %5, ptr noundef nonnull align 4 dereferenceable(4) %6, ptr noundef nonnull align 4 dereferenceable(4) %3)
  br label %80

80:                                               ; preds = %61, %.critedge, %71, %_ZNK6icu_778Calendar16getBasicTimeZoneEv.exit
  %81 = load i32, ptr %5, align 4, !tbaa !12
  %82 = load i32, ptr %6, align 4, !tbaa !12
  %83 = add nsw i32 %82, %81
  call void @llvm.lifetime.end.p0(i64 4, ptr nonnull %6) #25
  call void @llvm.lifetime.end.p0(i64 4, ptr nonnull %5) #25
  br label %84

84:                                               ; preds = %4, %80
  %.0 = phi i32 [ %83, %80 ], [ 0, %4 ]
  ret i32 %.0
}